; Function Attrs: mustprogress uwtable
define void @_ZN9TimerListC2Ev(ptr noundef nonnull align 8 dereferenceable(24) initializes((0, 24)) %0) unnamed_addr #3 align 2 personality ptr @__gxx_personality_v0 {
  tail call void @llvm.memset.p0.i64(ptr noundef nonnull align 8 dereferenceable(24) %0, i8 0, i64 24, i1 false)
  invoke void @_ZN9TimerList5ResetEv(ptr noundef nonnull align 8 dereferenceable(24) %0)
          to label %2 unwind label %3

2:                                                ; preds = %1
  ret void

3:                                                ; preds = %1
  %4 = landingpad { ptr, i32 }
          cleanup
  tail call void @_ZNSt6vectorI10TimerGroupSaIS0_EED2Ev(ptr noundef nonnull align 8 dereferenceable(24) %0) #15
  resume { ptr, i32 } %4
}